; Function Attrs: nofree norecurse nosync nounwind memory(readwrite, inaccessiblemem: none) uwtable
define dso_local void @ResourceOwnerNewParent(ptr noundef %0, ptr noundef %1) local_unnamed_addr #4 {
  %3 = load ptr, ptr %0, align 8
  %.not = icmp eq ptr %3, null
  br i1 %.not, label %.loopexit, label %4

4:                                                ; preds = %2
  %5 = getelementptr inbounds nuw i8, ptr %3, i64 8
  %6 = load ptr, ptr %5, align 8
  %7 = icmp eq ptr %0, %6
  br i1 %7, label %8, label %.preheader

8:                                                ; preds = %4
  %9 = getelementptr inbounds nuw i8, ptr %0, i64 16
  %10 = load ptr, ptr %9, align 8
  store ptr %10, ptr %5, align 8
  br label %.loopexit

.preheader:                                       ; preds = %4, %11
  %.0 = phi ptr [ %13, %11 ], [ %6, %4 ]
  %.not27 = icmp eq ptr %.0, null
  br i1 %.not27, label %.loopexit, label %11

11:                                               ; preds = %.preheader
  %12 = getelementptr inbounds nuw i8, ptr %.0, i64 16
  %13 = load ptr, ptr %12, align 8
  %14 = icmp eq ptr %0, %13
  br i1 %14, label %15, label %.preheader, !llvm.loop !18

15:                                               ; preds = %11
  %16 = getelementptr inbounds nuw i8, ptr %.0, i64 16
  %17 = getelementptr inbounds nuw i8, ptr %0, i64 16
  %18 = load ptr, ptr %17, align 8
  store ptr %18, ptr %16, align 8
  br label %.loopexit

.loopexit:                                        ; preds = %.preheader, %15, %8, %2
  %.not28 = icmp eq ptr %1, null
  br i1 %.not28, label %23, label %19

19:                                               ; preds = %.loopexit
  store ptr %1, ptr %0, align 8
  %20 = getelementptr inbounds nuw i8, ptr %1, i64 8
  %21 = load ptr, ptr %20, align 8
  %22 = getelementptr inbounds nuw i8, ptr %0, i64 16
  store ptr %21, ptr %22, align 8
  store ptr %0, ptr %20, align 8
  br label %25

23:                                               ; preds = %.loopexit
  store ptr null, ptr %0, align 8
  %24 = getelementptr inbounds nuw i8, ptr %0, i64 16
  store ptr null, ptr %24, align 8
  br label %25

25:                                               ; preds = %23, %19
  ret void
}